; Function Attrs: nounwind uwtable
define internal i32 @ed25519_to_SubjectPublicKeyInfo_der_encode(ptr noundef %0, ptr noundef %1, ptr noundef %2, ptr noundef readnone captures(address_is_null) %3, i32 noundef %4, ptr noundef %5, ptr noundef %6) #0 {
  %.not = icmp eq ptr %3, null
  br i1 %.not, label %9, label %8

8:                                                ; preds = %7
  tail call void @ERR_new() #5
  tail call void @ERR_set_debug(ptr noundef nonnull @.str, i32 noundef 1491, ptr noundef nonnull @__func__.ed25519_to_SubjectPublicKeyInfo_der_encode) #5
  tail call void (i32, i32, ptr, ...) @ERR_set_error(i32 noundef 57, i32 noundef 524550, ptr noundef null) #5
  br label %key2any_encode.exit

9:                                                ; preds = %7
  %10 = and i32 %4, 2
  %.not7 = icmp eq i32 %10, 0
  br i1 %.not7, label %28, label %11

11:                                               ; preds = %9
  %12 = icmp eq ptr %2, null
  br i1 %12, label %13, label %14

13:                                               ; preds = %11
  tail call void @ERR_new() #5
  tail call void @ERR_set_debug(ptr noundef nonnull @.str, i32 noundef 1140, ptr noundef nonnull @__func__.key2any_encode) #5
  tail call void (i32, i32, ptr, ...) @ERR_set_error(i32 noundef 57, i32 noundef 786690, ptr noundef null) #5
  br label %key2any_encode.exit

14:                                               ; preds = %11
  %15 = load ptr, ptr %0, align 8, !tbaa !3
  %16 = tail call ptr @ossl_bio_new_from_core_bio(ptr noundef %15, ptr noundef %1) #5
  %.not28.i = icmp eq ptr %16, null
  br i1 %.not28.i, label %26, label %17

17:                                               ; preds = %14
  %18 = icmp eq ptr %5, null
  br i1 %18, label %22, label %19

19:                                               ; preds = %17
  %20 = getelementptr inbounds nuw i8, ptr %0, i64 24
  %21 = tail call i32 @ossl_pw_set_ossl_passphrase_cb(ptr noundef nonnull %20, ptr noundef nonnull %5, ptr noundef %6) #5
  %.not29.i = icmp eq i32 %21, 0
  br i1 %.not29.i, label %26, label %22

22:                                               ; preds = %19, %17
  %23 = tail call fastcc ptr @key_to_pubkey(ptr noundef nonnull %2, i32 noundef 1087, ptr noundef null, i32 noundef -1, ptr noundef nonnull @ecx_spki_pub_to_der, ptr noundef nonnull %0)
  %.not18.i = icmp eq ptr %23, null
  br i1 %.not18.i, label %key_to_spki_der_pub_bio.exit, label %24

24:                                               ; preds = %22
  %25 = tail call i32 @i2d_X509_PUBKEY_bio(ptr noundef nonnull %16, ptr noundef nonnull %23) #5
  br label %key_to_spki_der_pub_bio.exit

key_to_spki_der_pub_bio.exit:                     ; preds = %22, %24
  %.0.i8 = phi i32 [ %25, %24 ], [ 0, %22 ]
  tail call void @X509_PUBKEY_free(ptr noundef %23) #5
  br label %26

26:                                               ; preds = %key_to_spki_der_pub_bio.exit, %19, %14
  %.1.i = phi i32 [ %.0.i8, %key_to_spki_der_pub_bio.exit ], [ 0, %19 ], [ 0, %14 ]
  %27 = tail call i32 @BIO_free(ptr noundef %16) #5
  br label %key2any_encode.exit

28:                                               ; preds = %9
  tail call void @ERR_new() #5
  tail call void @ERR_set_debug(ptr noundef nonnull @.str, i32 noundef 1491, ptr noundef nonnull @__func__.ed25519_to_SubjectPublicKeyInfo_der_encode) #5
  tail call void (i32, i32, ptr, ...) @ERR_set_error(i32 noundef 57, i32 noundef 524550, ptr noundef null) #5
  br label %key2any_encode.exit

key2any_encode.exit:                              ; preds = %26, %13, %28, %8
  %.0 = phi i32 [ 0, %8 ], [ 0, %28 ], [ 0, %13 ], [ %.1.i, %26 ]
  ret i32 %.0
}